; Function Attrs: mustprogress nounwind uwtable
define dso_local noundef zeroext i1 @_ZN4llvm11MCAssembler14registerSymbolERKNS_8MCSymbolE(ptr noundef nonnull align 8 dereferenceable(372) %0, ptr noundef nonnull align 8 dereferenceable(32) %1) local_unnamed_addr #0 align 2 {
  %3 = getelementptr inbounds nuw i8, ptr %1, i64 8
  %4 = load i64, ptr %3, align 8
  %5 = and i64 %4, 16
  %.not = icmp eq i64 %5, 0
  br i1 %.not, label %6, label %20

6:                                                ; preds = %2
  %7 = or disjoint i64 %4, 16
  store i64 %7, ptr %3, align 8
  %8 = getelementptr inbounds nuw i8, ptr %0, i64 56
  %9 = tail call noundef i64 @_ZNK4llvm15SmallVectorBaseIjE4sizeEv(ptr noundef nonnull align 8 dereferenceable(16) %8) #11
  %10 = add i64 %9, 1
  %11 = tail call noundef i64 @_ZNK4llvm15SmallVectorBaseIjE8capacityEv(ptr noundef nonnull align 8 dereferenceable(16) %8) #11
  %.not.i.i.i = icmp ugt i64 %10, %11
  br i1 %.not.i.i.i, label %12, label %_ZN4llvm23SmallVectorTemplateBaseIPKNS_8MCSymbolELb1EE9push_backES3_.exit

12:                                               ; preds = %6
  %13 = getelementptr inbounds i8, ptr %0, i64 72
  tail call void @_ZN4llvm15SmallVectorBaseIjE8grow_podEPvmm(ptr noundef nonnull align 8 dereferenceable(16) %8, ptr noundef nonnull %13, i64 noundef %10, i64 noundef 8) #11
  br label %_ZN4llvm23SmallVectorTemplateBaseIPKNS_8MCSymbolELb1EE9push_backES3_.exit

_ZN4llvm23SmallVectorTemplateBaseIPKNS_8MCSymbolELb1EE9push_backES3_.exit: ; preds = %6, %12
  %14 = load ptr, ptr %8, align 8
  %15 = tail call noundef i64 @_ZNK4llvm15SmallVectorBaseIjE4sizeEv(ptr noundef nonnull align 8 dereferenceable(16) %8) #11
  %16 = getelementptr inbounds ptr, ptr %14, i64 %15
  %17 = ptrtoint ptr %1 to i64
  store i64 %17, ptr %16, align 1
  %18 = tail call noundef i64 @_ZNK4llvm15SmallVectorBaseIjE4sizeEv(ptr noundef nonnull align 8 dereferenceable(16) %8) #11
  %19 = add i64 %18, 1
  tail call void @_ZN4llvm15SmallVectorBaseIjE8set_sizeEm(ptr noundef nonnull align 8 dereferenceable(16) %8, i64 noundef %19) #11
  br label %20

20:                                               ; preds = %_ZN4llvm23SmallVectorTemplateBaseIPKNS_8MCSymbolELb1EE9push_backES3_.exit, %2
  ret i1 %.not
}